target datalayout = "e-m:e-p270:32:32-p271:32:32-p272:64:64-i64:64-i128:128-f80:128-n8:16:32:64-S128"
target triple = "x86_64-pc-linux-gnu"

%struct.Curl_cfilter = type { ptr, ptr, ptr, ptr, i32, i8 }
%struct.Curl_cftype = type { ptr, i32, i32, ptr, ptr, ptr, ptr, ptr, ptr, ptr, ptr, ptr, ptr, ptr, ptr, ptr }

; Function Attrs: nounwind uwtable
define dso_local i64 @Curl_conn_cf_recv(ptr noundef %0, ptr noundef %1, ptr noundef %2, i64 noundef %3, ptr noundef %4) #0 {
  %6 = alloca i64, align 8
  %7 = alloca ptr, align 8
  %8 = alloca ptr, align 8
  %9 = alloca ptr, align 8
  %10 = alloca i64, align 8
  %11 = alloca ptr, align 8
  store ptr %0, ptr %7, align 8, !tbaa !4
  store ptr %1, ptr %8, align 8, !tbaa !9
  store ptr %2, ptr %9, align 8, !tbaa !50
  store i64 %3, ptr %10, align 8, !tbaa !58
  store ptr %4, ptr %11, align 8, !tbaa !57
  %12 = load ptr, ptr %7, align 8, !tbaa !4
  %13 = icmp ne ptr %12, null
  br i1 %13, label %14, label %26

14:                                               ; preds = %5
  %15 = load ptr, ptr %7, align 8, !tbaa !4
  %16 = getelementptr inbounds nuw %struct.Curl_cfilter, ptr %15, i32 0, i32 0
  %17 = load ptr, ptr %16, align 8, !tbaa !24
  %18 = getelementptr inbounds nuw %struct.Curl_cftype, ptr %17, i32 0, i32 11
  %19 = load ptr, ptr %18, align 8, !tbaa !62
  %20 = load ptr, ptr %7, align 8, !tbaa !4
  %21 = load ptr, ptr %8, align 8, !tbaa !9
  %22 = load ptr, ptr %9, align 8, !tbaa !50
  %23 = load i64, ptr %10, align 8, !tbaa !58
  %24 = load ptr, ptr %11, align 8, !tbaa !57
  %25 = call i64 %19(ptr noundef %20, ptr noundef %21, ptr noundef %22, i64 noundef %23, ptr noundef %24)
  store i64 %25, ptr %6, align 8
  br label %28

26:                                               ; preds = %5
  %27 = load ptr, ptr %11, align 8, !tbaa !57
  store i32 56, ptr %27, align 4, !tbaa !53
  store i64 -1, ptr %6, align 8
  br label %28

28:                                               ; preds = %26, %14
  %29 = load i64, ptr %6, align 8
  ret i64 %29
}