; Function Attrs: nounwind uwtable
define dso_local i64 @Curl_conn_cf_recv(ptr noundef %0, ptr noundef %1, ptr noundef %2, i64 noundef %3, ptr noundef %4) local_unnamed_addr #1 {
  %.not = icmp eq ptr %0, null
  br i1 %.not, label %11, label %6

6:                                                ; preds = %5
  %7 = load ptr, ptr %0, align 8, !tbaa !15
  %8 = getelementptr inbounds nuw i8, ptr %7, i64 80
  %9 = load ptr, ptr %8, align 8, !tbaa !47
  %10 = tail call i64 %9(ptr noundef nonnull %0, ptr noundef %1, ptr noundef %2, i64 noundef %3, ptr noundef %4) #12
  br label %12

11:                                               ; preds = %5
  store i32 56, ptr %4, align 4, !tbaa !44
  br label %12

12:                                               ; preds = %11, %6
  %.0 = phi i64 [ %10, %6 ], [ -1, %11 ]
  ret i64 %.0
}